target datalayout = "e-m:e-p270:32:32-p271:32:32-p272:64:64-i64:64-i128:128-f80:128-n8:16:32:64-S128"
target triple = "x86_64-pc-linux-gnu"

; Function Attrs: mustprogress uwtable
define internal noundef double @_ZN4absl15random_internal12_GLOBAL__N_118BetaIncompleteImplEdddd(double noundef %0, double noundef %1, double noundef %2, double noundef %3) #5 {
  %5 = alloca double, align 8
  %6 = alloca double, align 8
  %7 = alloca double, align 8
  %8 = alloca double, align 8
  %9 = alloca double, align 8
  %10 = alloca double, align 8
  %11 = alloca double, align 8
  %12 = alloca double, align 8
  %13 = alloca double, align 8
  %14 = alloca double, align 8
  %15 = alloca double, align 8
  %16 = alloca double, align 8
  %17 = alloca i32, align 4
  %18 = alloca double, align 8
  %19 = alloca double, align 8
  store double %0, ptr %6, align 8, !tbaa !11
  store double %1, ptr %7, align 8, !tbaa !11
  store double %2, ptr %8, align 8, !tbaa !11
  store double %3, ptr %9, align 8, !tbaa !11
  %20 = load double, ptr %7, align 8, !tbaa !11
  %21 = load double, ptr %7, align 8, !tbaa !11
  %22 = load double, ptr %8, align 8, !tbaa !11
  %23 = fadd double %21, %22
  %24 = load double, ptr %6, align 8, !tbaa !11
  %25 = fmul double %23, %24
  %26 = fcmp olt double %20, %25
  br i1 %26, label %27, label %35

27:                                               ; preds = %4
  %28 = load double, ptr %6, align 8, !tbaa !11
  %29 = fsub double 1.000000e+00, %28
  %30 = load double, ptr %8, align 8, !tbaa !11
  %31 = load double, ptr %7, align 8, !tbaa !11
  %32 = load double, ptr %9, align 8, !tbaa !11
  %33 = call noundef double @_ZN4absl15random_internal12_GLOBAL__N_118BetaIncompleteImplEdddd(double noundef %29, double noundef %30, double noundef %31, double noundef %32)
  %34 = fsub double 1.000000e+00, %33
  store double %34, ptr %5, align 8
  br label %120

35:                                               ; preds = %4
  call void @llvm.lifetime.start.p0(i64 8, ptr %10) #12
  %36 = load double, ptr %7, align 8, !tbaa !11
  %37 = load double, ptr %8, align 8, !tbaa !11
  %38 = fadd double %36, %37
  store double %38, ptr %10, align 8, !tbaa !11
  call void @llvm.lifetime.start.p0(i64 8, ptr %11) #12
  store double 0x3D06849B86A12B9B, ptr %11, align 8, !tbaa !11
  call void @llvm.lifetime.start.p0(i64 8, ptr %12) #12
  %39 = load double, ptr %6, align 8, !tbaa !11
  %40 = fsub double 1.000000e+00, %39
  store double %40, ptr %12, align 8, !tbaa !11
  call void @llvm.lifetime.start.p0(i64 8, ptr %13) #12
  %41 = load double, ptr %7, align 8, !tbaa !11
  %42 = load double, ptr %6, align 8, !tbaa !11
  %43 = call double @log(double noundef %42) #12, !tbaa !20
  %44 = load double, ptr %8, align 8, !tbaa !11
  %45 = fsub double %44, 1.000000e+00
  %46 = load double, ptr %12, align 8, !tbaa !11
  %47 = call double @log(double noundef %46) #12, !tbaa !20
  %48 = fmul double %45, %47
  %49 = call double @llvm.fmuladd.f64(double %41, double %43, double %48)
  %50 = load double, ptr %9, align 8, !tbaa !11
  %51 = fsub double %49, %50
  %52 = call double @exp(double noundef %51) #12, !tbaa !20
  %53 = load double, ptr %7, align 8, !tbaa !11
  %54 = fdiv double %52, %53
  store double %54, ptr %13, align 8, !tbaa !11
  call void @llvm.lifetime.start.p0(i64 8, ptr %14) #12
  store double 1.000000e+00, ptr %14, align 8, !tbaa !11
  call void @llvm.lifetime.start.p0(i64 8, ptr %15) #12
  store double 1.000000e+00, ptr %15, align 8, !tbaa !11
  call void @llvm.lifetime.start.p0(i64 8, ptr %16) #12
  store double 1.000000e+00, ptr %16, align 8, !tbaa !11
  call void @llvm.lifetime.start.p0(i64 4, ptr %17) #12
  %55 = load double, ptr %8, align 8, !tbaa !11
  %56 = load double, ptr %12, align 8, !tbaa !11
  %57 = load double, ptr %10, align 8, !tbaa !11
  %58 = call double @llvm.fmuladd.f64(double %56, double %57, double %55)
  %59 = fptosi double %58 to i32
  store i32 %59, ptr %17, align 4, !tbaa !20
  call void @llvm.lifetime.start.p0(i64 8, ptr %18) #12
  %60 = load i32, ptr %17, align 4, !tbaa !20
  %61 = icmp eq i32 %60, 0
  br i1 %61, label %62, label %64

62:                                               ; preds = %35
  %63 = load double, ptr %6, align 8, !tbaa !11
  br label %68

64:                                               ; preds = %35
  %65 = load double, ptr %6, align 8, !tbaa !11
  %66 = load double, ptr %12, align 8, !tbaa !11
  %67 = fdiv double %65, %66
  br label %68

68:                                               ; preds = %64, %62
  %69 = phi double [ %63, %62 ], [ %67, %64 ]
  store double %69, ptr %18, align 8, !tbaa !11
  call void @llvm.lifetime.start.p0(i64 8, ptr %19) #12
  %70 = load double, ptr %8, align 8, !tbaa !11
  %71 = load double, ptr %15, align 8, !tbaa !11
  %72 = fsub double %70, %71
  store double %72, ptr %19, align 8, !tbaa !11
  br label %73

73:                                               ; preds = %119, %68
  %74 = load double, ptr %14, align 8, !tbaa !11
  %75 = load double, ptr %19, align 8, !tbaa !11
  %76 = fmul double %74, %75
  %77 = load double, ptr %18, align 8, !tbaa !11
  %78 = fmul double %76, %77
  %79 = load double, ptr %7, align 8, !tbaa !11
  %80 = load double, ptr %15, align 8, !tbaa !11
  %81 = fadd double %79, %80
  %82 = fdiv double %78, %81
  store double %82, ptr %14, align 8, !tbaa !11
  %83 = load double, ptr %16, align 8, !tbaa !11
  %84 = load double, ptr %14, align 8, !tbaa !11
  %85 = fadd double %83, %84
  store double %85, ptr %16, align 8, !tbaa !11
  %86 = load double, ptr %14, align 8, !tbaa !11
  %87 = call double @llvm.fabs.f64(double %86)
  store double %87, ptr %19, align 8, !tbaa !11
  %88 = load double, ptr %19, align 8, !tbaa !11
  %89 = fcmp olt double %88, 0x3D06849B86A12B9B
  br i1 %89, label %90, label %99

90:                                               ; preds = %73
  %91 = load double, ptr %19, align 8, !tbaa !11
  %92 = load double, ptr %16, align 8, !tbaa !11
  %93 = fmul double 0x3D06849B86A12B9B, %92
  %94 = fcmp olt double %91, %93
  br i1 %94, label %95, label %99

95:                                               ; preds = %90
  %96 = load double, ptr %16, align 8, !tbaa !11
  %97 = load double, ptr %13, align 8, !tbaa !11
  %98 = fmul double %96, %97
  store double %98, ptr %5, align 8
  call void @llvm.lifetime.end.p0(i64 8, ptr %19) #12
  call void @llvm.lifetime.end.p0(i64 8, ptr %18) #12
  call void @llvm.lifetime.end.p0(i64 4, ptr %17) #12
  call void @llvm.lifetime.end.p0(i64 8, ptr %16) #12
  call void @llvm.lifetime.end.p0(i64 8, ptr %15) #12
  call void @llvm.lifetime.end.p0(i64 8, ptr %14) #12
  call void @llvm.lifetime.end.p0(i64 8, ptr %13) #12
  call void @llvm.lifetime.end.p0(i64 8, ptr %12) #12
  call void @llvm.lifetime.end.p0(i64 8, ptr %11) #12
  call void @llvm.lifetime.end.p0(i64 8, ptr %10) #12
  br label %120

99:                                               ; preds = %90, %73
  %100 = load double, ptr %15, align 8, !tbaa !11
  %101 = fadd double %100, 1.000000e+00
  store double %101, ptr %15, align 8, !tbaa !11
  %102 = load i32, ptr %17, align 4, !tbaa !20
  %103 = add nsw i32 %102, -1
  store i32 %103, ptr %17, align 4, !tbaa !20
  %104 = load i32, ptr %17, align 4, !tbaa !20
  %105 = icmp sge i32 %104, 0
  br i1 %105, label %106, label %115

106:                                              ; preds = %99
  %107 = load double, ptr %8, align 8, !tbaa !11
  %108 = load double, ptr %15, align 8, !tbaa !11
  %109 = fsub double %107, %108
  store double %109, ptr %19, align 8, !tbaa !11
  %110 = load i32, ptr %17, align 4, !tbaa !20
  %111 = icmp eq i32 %110, 0
  br i1 %111, label %112, label %114

112:                                              ; preds = %106
  %113 = load double, ptr %6, align 8, !tbaa !11
  store double %113, ptr %18, align 8, !tbaa !11
  br label %114

114:                                              ; preds = %112, %106
  br label %119

115:                                              ; preds = %99
  %116 = load double, ptr %10, align 8, !tbaa !11
  store double %116, ptr %19, align 8, !tbaa !11
  %117 = load double, ptr %10, align 8, !tbaa !11
  %118 = fadd double %117, 1.000000e+00
  store double %118, ptr %10, align 8, !tbaa !11
  br label %119

119:                                              ; preds = %115, %114
  br label %73, !llvm.loop !46

120:                                              ; preds = %95, %27
  %121 = load double, ptr %5, align 8
  ret double %121
}