; Function Attrs: mustprogress nofree nounwind memory(write) uwtable
define internal fastcc noundef double @_ZN4absl15random_internal12_GLOBAL__N_118BetaIncompleteImplEdddd(double noundef %0, double noundef %1, double noundef %2, double noundef %3) unnamed_addr #9 {
  %5 = fadd double %1, %2
  %6 = fmul double %0, %5
  %7 = fcmp olt double %1, %6
  %8 = fsub double 1.000000e+00, %0
  br i1 %7, label %9, label %12

common.ret72:                                     ; preds = %9, %._crit_edge
  %common.ret72.op = phi double [ %34, %._crit_edge ], [ %11, %9 ]
  ret double %common.ret72.op

9:                                                ; preds = %4
  %10 = tail call fastcc noundef double @_ZN4absl15random_internal12_GLOBAL__N_118BetaIncompleteImplEdddd(double noundef %8, double noundef %2, double noundef %1, double noundef %3)
  %11 = fsub double 1.000000e+00, %10
  br label %common.ret72

12:                                               ; preds = %4
  %13 = tail call double @log(double noundef %0) #15, !tbaa !12
  %14 = fadd double %2, -1.000000e+00
  %15 = tail call double @log(double noundef %8) #15, !tbaa !12
  %16 = fmul double %14, %15
  %17 = tail call double @llvm.fmuladd.f64(double %1, double %13, double %16)
  %18 = fsub double %17, %3
  %19 = tail call double @exp(double noundef %18) #15, !tbaa !12
  %20 = fdiv double %19, %1
  %21 = tail call double @llvm.fmuladd.f64(double %8, double %5, double %2)
  %22 = fptosi double %21 to i32
  %23 = icmp eq i32 %22, 0
  %24 = fdiv double %0, %8
  %25 = select i1 %23, double %0, double %24
  %26 = fmul double %25, %14
  %27 = fadd double %1, 1.000000e+00
  %28 = fdiv double %26, %27
  %29 = fadd double %28, 1.000000e+00
  %30 = tail call double @llvm.fabs.f64(double %28)
  %31 = fcmp olt double %30, 0x3D06849B86A12B9B
  %32 = fmul double %29, 0x3D06849B86A12B9B
  %33 = fcmp olt double %30, %32
  %or.cond62 = select i1 %31, i1 %33, i1 false
  br i1 %or.cond62, label %._crit_edge, label %.lr.ph

._crit_edge:                                      ; preds = %46, %12
  %.lcssa = phi double [ %29, %12 ], [ %51, %46 ]
  %34 = fmul double %20, %.lcssa
  br label %common.ret72

.lr.ph:                                           ; preds = %12, %46
  %35 = phi double [ %51, %46 ], [ %29, %12 ]
  %36 = phi double [ %50, %46 ], [ %28, %12 ]
  %.04866 = phi double [ %.149, %46 ], [ %25, %12 ]
  %.05065 = phi i32 [ %38, %46 ], [ %22, %12 ]
  %.05264 = phi double [ %37, %46 ], [ 1.000000e+00, %12 ]
  %.05563 = phi double [ %.156, %46 ], [ %5, %12 ]
  %37 = fadd double %.05264, 1.000000e+00
  %38 = add nsw i32 %.05065, -1
  %39 = icmp sgt i32 %.05065, 0
  br i1 %39, label %40, label %44

40:                                               ; preds = %.lr.ph
  %41 = fsub double %2, %37
  %42 = icmp eq i32 %38, 0
  br i1 %42, label %43, label %46

43:                                               ; preds = %40
  br label %46

44:                                               ; preds = %.lr.ph
  %45 = fadd double %.05563, 1.000000e+00
  br label %46

46:                                               ; preds = %40, %43, %44
  %.156 = phi double [ %.05563, %43 ], [ %.05563, %40 ], [ %45, %44 ]
  %.149 = phi double [ %0, %43 ], [ %.04866, %40 ], [ %.04866, %44 ]
  %.1 = phi double [ %41, %43 ], [ %41, %40 ], [ %.05563, %44 ]
  %47 = fmul double %36, %.1
  %48 = fmul double %.149, %47
  %49 = fadd double %1, %37
  %50 = fdiv double %48, %49
  %51 = fadd double %35, %50
  %52 = tail call double @llvm.fabs.f64(double %50)
  %53 = fcmp olt double %52, 0x3D06849B86A12B9B
  %54 = fmul double %51, 0x3D06849B86A12B9B
  %55 = fcmp olt double %52, %54
  %or.cond = select i1 %53, i1 %55, i1 false
  br i1 %or.cond, label %._crit_edge, label %.lr.ph, !llvm.loop !36
}